Certificate:
    Data:
        Version: 3 (0x2)
        Serial Number:
            5d:76:5a:fb:a0:82:1b:9e:14:52:f5:b4:93:5a:c1:13:a0:e8:77:fb
        Signature Algorithm: sha256WithRSAEncryption
        Issuer: CN=localhost
        Validity
            Not Before: Dec 30 02:17:25 2025 GMT
            Not After : Dec 30 02:17:25 2026 GMT
        Subject: CN=localhost
        Subject Public Key Info:
            Public Key Algorithm: rsaEncryption
                Public-Key: (2048 bit)
                Modulus:
                    00:9e:81:e0:cf:17:54:db:00:41:f6:fe:c2:27:81:
                    ed:20:f3:c8:bb:cf:2f:24:97:35:02:06:50:69:f9:
                    d2:2f:bd:08:d9:de:41:e2:f2:c0:81:46:06:eb:2b:
                    5b:a7:39:aa:ab:5a:c6:e0:2d:af:67:88:16:c8:45:
                    58:8e:2d:7d:f1:43:d3:93:9f:5f:29:93:77:72:db:
                    54:da:44:9b:98:e6:55:9b:05:a8:be:aa:93:ca:46:
                    eb:04:9a:d1:84:5b:c3:ff:94:34:f4:62:78:4b:17:
                    6e:54:3b:3b:d6:e4:72:e6:39:c1:70:fa:72:d1:f5:
                    bb:6e:7a:19:63:e2:a1:fe:37:34:79:f4:15:40:92:
                    12:1d:a1:75:a5:c7:48:7b:92:ea:61:a2:45:4c:f1:
                    76:e0:74:3c:25:6d:6b:38:f6:53:90:61:dd:a1:4d:
                    c0:c8:40:58:42:21:40:9c:e4:e9:66:e7:ad:22:79:
                    58:ad:8c:aa:e5:8d:ca:02:57:6c:43:b5:a7:f3:d2:
                    3b:ba:f5:2d:d7:49:91:c1:47:13:2e:ab:09:4c:1f:
                    97:0f:57:fd:5a:c6:b2:91:01:eb:16:c4:ff:f5:8d:
                    e7:72:78:0a:e7:f1:7f:7c:e2:7b:9c:34:2f:73:ed:
                    75:30:d1:0f:14:99:17:7c:54:6a:9c:df:0e:57:4c:
                    f8:1d
                Exponent: 65537 (0x10001)
        X509v3 extensions:
            X509v3 Subject Key Identifier: 
                D4:81:CF:8F:5A:F8:A7:EF:93:B8:88:FB:2F:5E:BA:71:33:A4:86:8A
            X509v3 Authority Key Identifier: 
                D4:81:CF:8F:5A:F8:A7:EF:93:B8:88:FB:2F:5E:BA:71:33:A4:86:8A
            X509v3 Basic Constraints: critical
                CA:TRUE
    Signature Algorithm: sha256WithRSAEncryption
    Signature Value:
        27:e2:ae:89:0b:d5:b3:78:1d:5d:63:da:eb:fc:2d:e0:b6:50:
        54:e1:3a:df:eb:d5:1e:0b:4e:10:ea:10:0f:d3:04:5e:7b:cc:
        90:00:18:4f:3c:3e:93:57:a3:94:39:20:07:e8:26:e3:f3:4c:
        a2:02:33:78:24:fe:a8:50:3e:a2:9c:e0:61:1c:56:24:1c:f7:
        34:fb:7e:9f:ea:50:22:11:a6:f2:94:29:43:52:a3:26:85:79:
        96:39:57:ff:6f:e4:03:bd:cc:69:1a:4c:ef:6b:96:e3:f0:80:
        fd:b6:33:39:54:77:b5:7d:f4:b9:f2:f6:27:81:b8:2e:ca:d2:
        12:f8:78:15:87:1f:48:11:79:a5:36:e9:4e:4c:84:1b:8e:31:
        92:73:91:1d:db:6f:12:50:75:f9:fb:0c:13:d0:a2:fc:aa:be:
        9a:db:62:22:a4:30:04:0e:0a:42:b6:08:c9:a9:ce:34:19:53:
        81:b7:88:be:bc:4e:3d:e4:06:55:7d:b3:63:18:35:9d:f5:39:
        30:13:39:7d:24:2d:82:dd:a8:34:2e:9a:60:b8:d1:08:73:c2:
        1b:7c:27:5e:35:4c:66:b0:69:e0:36:da:d4:71:95:0c:6d:52:
        05:5c:c9:f2:7c:ef:09:cc:11:cc:6f:7b:68:47:e2:c5:c8:79:
        d8:d2:fb:36
-----BEGIN CERTIFICATE-----
MIIDCTCCAfGgAwIBAgIUXXZa+6CCG54UUvW0k1rBE6Dod/swDQYJKoZIhvcNAQEL
BQAwFDESMBAGA1UEAwwJbG9jYWxob3N0MB4XDTI1MTIzMDAyMTcyNVoXDTI2MTIz
MDAyMTcyNVowFDESMBAGA1UEAwwJbG9jYWxob3N0MIIBIjANBgkqhkiG9w0BAQEF
AAOCAQ8AMIIBCgKCAQEAnoHgzxdU2wBB9v7CJ4HtIPPIu88vJJc1AgZQafnSL70I
2d5B4vLAgUYG6ytbpzmqq1rG4C2vZ4gWyEVYji198UPTk59fKZN3cttU2kSbmOZV
mwWovqqTykbrBJrRhFvD/5Q09GJ4SxduVDs71uRy5jnBcPpy0fW7bnoZY+Kh/jc0
efQVQJISHaF1pcdIe5LqYaJFTPF24HQ8JW1rOPZTkGHdoU3AyEBYQiFAnOTpZuet
InlYrYyq5Y3KAldsQ7Wn89I7uvUt10mRwUcTLqsJTB+XD1f9WsaykQHrFsT/9Y3n
cngK5/F/fOJ7nDQvc+11MNEPFJkXfFRqnN8OV0z4HQIDAQABo1MwUTAdBgNVHQ4E
FgQU1IHPj1r4p++TuIj7L166cTOkhoowHwYDVR0jBBgwFoAU1IHPj1r4p++TuIj7
L166cTOkhoowDwYDVR0TAQH/BAUwAwEB/zANBgkqhkiG9w0BAQsFAAOCAQEAJ+Ku
iQvVs3gdXWPa6/wt4LZQVOE63+vVHgtOEOoQD9MEXnvMkAAYTzw+k1ejlDkgB+gm
4/NMogIzeCT+qFA+opzgYRxWJBz3NPt+n+pQIhGm8pQpQ1KjJoV5ljlX/2/kA73M
aRpM72uW4/CA/bYzOVR3tX30ufL2J4G4LsrSEvh4FYcfSBF5pTbpTkyEG44xknOR
HdtvElB1+fsME9Ci/Kq+mttiIqQwBA4KQrYIyanONBlTgbeIvrxOPeQGVX2zYxg1
nfU5MBM5fSQtgt2oNC6aYLjRCHPCG3wnXjVMZrBp4Dba1HGVDG1SBVzJ8nzvCcwR
zG97aEfixch52NL7Ng==
-----END CERTIFICATE-----
